; Function Attrs: mustprogress uwtable
define void @grpc_ssl_server_certificate_config_destroy(ptr noundef %0) local_unnamed_addr #3 {
  %2 = icmp eq ptr %0, null
  br i1 %2, label %17, label %.preheader

.preheader:                                       ; preds = %1
  %3 = getelementptr inbounds nuw i8, ptr %0, i64 8
  %4 = load i64, ptr %3, align 8, !tbaa !127
  %.not = icmp eq i64 %4, 0
  br i1 %.not, label %._crit_edge, label %.lr.ph

._crit_edge:                                      ; preds = %.lr.ph, %.preheader
  %5 = load ptr, ptr %0, align 8, !tbaa !126
  tail call void @gpr_free(ptr noundef %5)
  %6 = getelementptr inbounds nuw i8, ptr %0, i64 16
  %7 = load ptr, ptr %6, align 8, !tbaa !124
  tail call void @gpr_free(ptr noundef %7)
  tail call void @gpr_free(ptr noundef nonnull %0)
  br label %17

.lr.ph:                                           ; preds = %.preheader, %.lr.ph
  %.011 = phi i64 [ %14, %.lr.ph ], [ 0, %.preheader ]
  %8 = load ptr, ptr %0, align 8, !tbaa !126
  %9 = getelementptr inbounds nuw %struct.grpc_ssl_pem_key_cert_pair, ptr %8, i64 %.011
  %10 = load ptr, ptr %9, align 8, !tbaa !41
  tail call void @gpr_free(ptr noundef %10)
  %11 = load ptr, ptr %0, align 8, !tbaa !126
  %12 = getelementptr inbounds nuw %struct.grpc_ssl_pem_key_cert_pair, ptr %11, i64 %.011, i32 1
  %13 = load ptr, ptr %12, align 8, !tbaa !37
  tail call void @gpr_free(ptr noundef %13)
  %14 = add nuw i64 %.011, 1
  %15 = load i64, ptr %3, align 8, !tbaa !127
  %16 = icmp ult i64 %14, %15
  br i1 %16, label %.lr.ph, label %._crit_edge, !llvm.loop !144

17:                                               ; preds = %1, %._crit_edge
  ret void
}